; Function Attrs: nounwind uwtable
define internal fastcc noalias nonnull ptr @_init_l_Lean_Elab_Term_elabSubst___regBuiltin_Lean_Elab_Term_elabSubst_declRange__3___closed__4() unnamed_addr #0 {
  tail call void @lean_inc_heartbeat() #6
  %1 = tail call noalias ptr @mi_malloc_small(i64 noundef 24) #6
  %2 = icmp eq ptr %1, null
  br i1 %2, label %3, label %lean_alloc_ctor.exit

3:                                                ; preds = %0
  tail call void @lean_internal_panic_out_of_memory() #7
  unreachable

lean_alloc_ctor.exit:                             ; preds = %0
  %4 = getelementptr inbounds nuw i8, ptr %1, i64 4
  store i32 1, ptr %1, align 4, !tbaa !4
  store i32 131096, ptr %4, align 4
  %5 = getelementptr inbounds nuw i8, ptr %1, i64 8
  store ptr inttoptr (i64 689 to ptr), ptr %5, align 8, !tbaa !10
  %6 = getelementptr inbounds nuw i8, ptr %1, i64 16
  store ptr inttoptr (i64 63 to ptr), ptr %6, align 8, !tbaa !10
  ret ptr %1
}